; Function Attrs: mustprogress uwtable
define void @_ZN6casadi14doc_integratorERKNSt7__cxx1112basic_stringIcSt11char_traitsIcESaIcEEE(ptr dead_on_unwind noalias writable sret(%"class.std::__cxx11::basic_string") align 8 %0, ptr noundef nonnull align 8 dereferenceable(32) %1) local_unnamed_addr #3 personality ptr @__gxx_personality_v0 {
  %3 = alloca %"class.std::allocator.0", align 1
  %4 = tail call noundef nonnull align 8 dereferenceable(48) ptr @_ZN6casadi15PluginInterfaceINS_10IntegratorEE9getPluginERKNSt7__cxx1112basic_stringIcSt11char_traitsIcESaIcEEE(ptr noundef nonnull align 8 dereferenceable(32) %1)
  %5 = getelementptr inbounds i8, ptr %4, i64 16
  %6 = load ptr, ptr %5, align 8
  call void @_ZNSaIcEC1Ev(ptr noundef nonnull align 1 dereferenceable(1) %3) #29
  %7 = invoke noundef ptr @_ZNSt7__cxx1112basic_stringIcSt11char_traitsIcESaIcEE13_M_local_dataEv(ptr noundef nonnull align 8 dereferenceable(32) %0)
          to label %.noexc unwind label %16

.noexc:                                           ; preds = %2
  invoke void @_ZNSt7__cxx1112basic_stringIcSt11char_traitsIcESaIcEE12_Alloc_hiderC1EPcRKS3_(ptr noundef nonnull align 8 dereferenceable(8) %0, ptr noundef %7, ptr noundef nonnull align 1 dereferenceable(1) %3)
          to label %.noexc2 unwind label %16

.noexc2:                                          ; preds = %.noexc
  %8 = icmp eq ptr %6, null
  br i1 %8, label %9, label %13

9:                                                ; preds = %.noexc2
  invoke void @_ZSt19__throw_logic_errorPKc(ptr noundef nonnull @.str.244) #28
          to label %10 unwind label %11

10:                                               ; preds = %9
  unreachable

11:                                               ; preds = %13, %9
  %12 = landingpad { ptr, i32 }
          cleanup
  call void @_ZNSaIcED2Ev(ptr noundef nonnull align 1 dereferenceable(1) %0) #29
  br label %.body

13:                                               ; preds = %.noexc2
  %14 = call noundef i64 @strlen(ptr noundef nonnull dereferenceable(1) %6) #29
  %15 = getelementptr inbounds i8, ptr %6, i64 %14
  invoke void @_ZNSt7__cxx1112basic_stringIcSt11char_traitsIcESaIcEE12_M_constructIPKcEEvT_S8_St20forward_iterator_tag(ptr noundef nonnull align 8 dereferenceable(32) %0, ptr noundef nonnull %6, ptr noundef nonnull %15)
          to label %_ZNSt7__cxx1112basic_stringIcSt11char_traitsIcESaIcEEC2IS3_EEPKcRKS3_.exit unwind label %11

_ZNSt7__cxx1112basic_stringIcSt11char_traitsIcESaIcEEC2IS3_EEPKcRKS3_.exit: ; preds = %13
  call void @_ZNSaIcED1Ev(ptr noundef nonnull align 1 dereferenceable(1) %3) #29
  ret void

16:                                               ; preds = %.noexc, %2
  %17 = landingpad { ptr, i32 }
          cleanup
  br label %.body

.body:                                            ; preds = %11, %16
  %eh.lpad-body = phi { ptr, i32 } [ %17, %16 ], [ %12, %11 ]
  call void @_ZNSaIcED1Ev(ptr noundef nonnull align 1 dereferenceable(1) %3) #29
  resume { ptr, i32 } %eh.lpad-body
}